target datalayout = "e-m:e-p270:32:32-p271:32:32-p272:64:64-i64:64-i128:128-f80:128-n8:16:32:64-S128"
target triple = "x86_64-pc-linux-gnu"

%struct.lexbor_str_t = type { ptr, i64 }

; Function Attrs: nounwind uwtable
define hidden i64 @lexbor_str_whitespace_from_end(ptr noundef %0) #0 {
  %2 = alloca i64, align 8
  %3 = alloca ptr, align 8
  %4 = alloca i64, align 8
  %5 = alloca ptr, align 8
  store ptr %0, ptr %3, align 8
  %6 = load ptr, ptr %3, align 8
  %7 = getelementptr inbounds %struct.lexbor_str_t, ptr %6, i32 0, i32 1
  %8 = load i64, ptr %7, align 8
  store i64 %8, ptr %4, align 8
  %9 = load ptr, ptr %3, align 8
  %10 = getelementptr inbounds %struct.lexbor_str_t, ptr %9, i32 0, i32 0
  %11 = load ptr, ptr %10, align 8
  store ptr %11, ptr %5, align 8
  br label %12

12:                                               ; preds = %59, %1
  %13 = load i64, ptr %4, align 8
  %14 = icmp ne i64 %13, 0
  br i1 %14, label %15, label %60

15:                                               ; preds = %12
  %16 = load i64, ptr %4, align 8
  %17 = add i64 %16, -1
  store i64 %17, ptr %4, align 8
  %18 = load ptr, ptr %5, align 8
  %19 = load i64, ptr %4, align 8
  %20 = getelementptr inbounds i8, ptr %18, i64 %19
  %21 = load i8, ptr %20, align 1
  %22 = zext i8 %21 to i32
  %23 = icmp ne i32 %22, 32
  br i1 %23, label %24, label %59

24:                                               ; preds = %15
  %25 = load ptr, ptr %5, align 8
  %26 = load i64, ptr %4, align 8
  %27 = getelementptr inbounds i8, ptr %25, i64 %26
  %28 = load i8, ptr %27, align 1
  %29 = zext i8 %28 to i32
  %30 = icmp ne i32 %29, 9
  br i1 %30, label %31, label %59

31:                                               ; preds = %24
  %32 = load ptr, ptr %5, align 8
  %33 = load i64, ptr %4, align 8
  %34 = getelementptr inbounds i8, ptr %32, i64 %33
  %35 = load i8, ptr %34, align 1
  %36 = zext i8 %35 to i32
  %37 = icmp ne i32 %36, 10
  br i1 %37, label %38, label %59

38:                                               ; preds = %31
  %39 = load ptr, ptr %5, align 8
  %40 = load i64, ptr %4, align 8
  %41 = getelementptr inbounds i8, ptr %39, i64 %40
  %42 = load i8, ptr %41, align 1
  %43 = zext i8 %42 to i32
  %44 = icmp ne i32 %43, 12
  br i1 %44, label %45, label %59

45:                                               ; preds = %38
  %46 = load ptr, ptr %5, align 8
  %47 = load i64, ptr %4, align 8
  %48 = getelementptr inbounds i8, ptr %46, i64 %47
  %49 = load i8, ptr %48, align 1
  %50 = zext i8 %49 to i32
  %51 = icmp ne i32 %50, 13
  br i1 %51, label %52, label %59

52:                                               ; preds = %45
  %53 = load ptr, ptr %3, align 8
  %54 = getelementptr inbounds %struct.lexbor_str_t, ptr %53, i32 0, i32 1
  %55 = load i64, ptr %54, align 8
  %56 = load i64, ptr %4, align 8
  %57 = add i64 %56, 1
  %58 = sub i64 %55, %57
  store i64 %58, ptr %2, align 8
  br label %61

59:                                               ; preds = %45, %38, %31, %24, %15
  br label %12

60:                                               ; preds = %12
  store i64 0, ptr %2, align 8
  br label %61

61:                                               ; preds = %60, %52
  %62 = load i64, ptr %2, align 8
  ret i64 %62
}