; Function Attrs: nofree norecurse nosync nounwind memory(read, inaccessiblemem: none) uwtable
define hidden i64 @lexbor_str_whitespace_from_end(ptr nocapture noundef readonly %0) local_unnamed_addr #7 {
  %2 = getelementptr inbounds i8, ptr %0, i64 8
  %3 = load i64, ptr %2, align 8
  %4 = load ptr, ptr %0, align 8
  %.not24 = icmp eq i64 %3, 0
  br i1 %.not24, label %.loopexit, label %.lr.ph

.lr.ph:                                           ; preds = %1, %10
  %.01625 = phi i64 [ %5, %10 ], [ %3, %1 ]
  %5 = add i64 %.01625, -1
  %6 = getelementptr inbounds i8, ptr %4, i64 %5
  %7 = load i8, ptr %6, align 1
  switch i8 %7, label %8 [
    i8 32, label %10
    i8 9, label %10
    i8 10, label %10
    i8 12, label %10
    i8 13, label %10
  ]

8:                                                ; preds = %.lr.ph
  %9 = sub i64 %3, %.01625
  br label %.loopexit

10:                                               ; preds = %.lr.ph, %.lr.ph, %.lr.ph, %.lr.ph, %.lr.ph
  %.not = icmp eq i64 %5, 0
  br i1 %.not, label %.loopexit, label %.lr.ph

.loopexit:                                        ; preds = %10, %1, %8
  %.0 = phi i64 [ %9, %8 ], [ 0, %1 ], [ 0, %10 ]
  ret i64 %.0
}